target datalayout = "e-m:e-p270:32:32-p271:32:32-p272:64:64-i64:64-i128:128-f80:128-n8:16:32:64-S128"
target triple = "x86_64-pc-linux-gnu"

%struct._xmlNode = type { ptr, i32, ptr, ptr, ptr, ptr, ptr, ptr, ptr, ptr, ptr, ptr, ptr, ptr, i16, i16 }
%struct._zval_struct = type { %union._zend_value, %union.anon, %union.anon.2 }
%union._zend_value = type { i64 }
%union.anon = type { i32 }
%union.anon.2 = type { i32 }
%struct._zend_object = type { %struct._zend_refcounted_h, i32, ptr, ptr, ptr, [1 x %struct._zval_struct] }
%struct._zend_refcounted_h = type { i32, %union.anon.3 }
%union.anon.3 = type { i32 }

@dom_node_class_entry = external global ptr, align 8
@.str = private unnamed_addr constant [41 x i8] c"must be of type DOMNode|string, %s given\00", align 1

; Function Attrs: nounwind uwtable
define internal ptr @php_dom_obj_from_obj(ptr noundef %0) #0 {
  %2 = alloca ptr, align 8
  store ptr %0, ptr %2, align 8
  %3 = load ptr, ptr %2, align 8
  %4 = getelementptr inbounds i8, ptr %3, i64 -24
  ret ptr %4
}

; Function Attrs: nounwind uwtable
define internal ptr @dom_doc_from_context_node(ptr noundef %0) #0 {
  %2 = alloca ptr, align 8
  %3 = alloca ptr, align 8
  store ptr %0, ptr %3, align 8
  %4 = load ptr, ptr %3, align 8
  %5 = getelementptr inbounds %struct._xmlNode, ptr %4, i32 0, i32 1
  %6 = load i32, ptr %5, align 8
  %7 = icmp eq i32 %6, 9
  br i1 %7, label %13, label %8

8:                                                ; preds = %1
  %9 = load ptr, ptr %3, align 8
  %10 = getelementptr inbounds %struct._xmlNode, ptr %9, i32 0, i32 1
  %11 = load i32, ptr %10, align 8
  %12 = icmp eq i32 %11, 13
  br i1 %12, label %13, label %15

13:                                               ; preds = %8, %1
  %14 = load ptr, ptr %3, align 8
  store ptr %14, ptr %2, align 8
  br label %19

15:                                               ; preds = %8
  %16 = load ptr, ptr %3, align 8
  %17 = getelementptr inbounds %struct._xmlNode, ptr %16, i32 0, i32 8
  %18 = load ptr, ptr %17, align 8
  store ptr %18, ptr %2, align 8
  br label %19

19:                                               ; preds = %15, %13
  %20 = load ptr, ptr %2, align 8
  ret ptr %20
}

; Function Attrs: nounwind uwtable
define internal i32 @dom_sanity_check_node_list_for_insertion(ptr noundef %0, ptr noundef %1, ptr noundef %2, i32 noundef %3) #0 {
  %5 = alloca ptr, align 8
  %6 = alloca ptr, align 8
  %7 = alloca ptr, align 8
  %8 = alloca i32, align 4
  %9 = alloca ptr, align 8
  %10 = alloca ptr, align 8
  %11 = alloca ptr, align 8
  %12 = alloca i32, align 4
  %13 = alloca ptr, align 8
  %14 = alloca i32, align 4
  %15 = alloca i8, align 1
  %16 = alloca ptr, align 8
  %17 = alloca ptr, align 8
  store ptr %0, ptr %9, align 8
  store ptr %1, ptr %10, align 8
  store ptr %2, ptr %11, align 8
  store i32 %3, ptr %12, align 4
  %18 = load ptr, ptr %10, align 8
  %19 = icmp eq ptr %18, null
  %20 = xor i1 %19, true
  %21 = xor i1 %20, true
  %22 = zext i1 %21 to i32
  %23 = sext i32 %22 to i64
  %24 = icmp ne i64 %23, 0
  br i1 %24, label %25, label %26

25:                                               ; preds = %4
  store i32 -1, ptr %8, align 4
  br label %122

26:                                               ; preds = %4
  %27 = load ptr, ptr %10, align 8
  %28 = call ptr @dom_doc_from_context_node(ptr noundef %27)
  store ptr %28, ptr %13, align 8
  store i32 0, ptr %14, align 4
  br label %29

29:                                               ; preds = %118, %26
  %30 = load i32, ptr %14, align 4
  %31 = load i32, ptr %12, align 4
  %32 = icmp ult i32 %30, %31
  br i1 %32, label %33, label %121

33:                                               ; preds = %29
  %34 = load ptr, ptr %11, align 8
  %35 = load i32, ptr %14, align 4
  %36 = zext i32 %35 to i64
  %37 = getelementptr inbounds %struct._zval_struct, ptr %34, i64 %36
  store ptr %37, ptr %7, align 8
  %38 = load ptr, ptr %7, align 8
  %39 = getelementptr inbounds %struct._zval_struct, ptr %38, i32 0, i32 1
  %40 = load i8, ptr %39, align 8
  store i8 %40, ptr %15, align 1
  %41 = load i8, ptr %15, align 1
  %42 = zext i8 %41 to i32
  %43 = icmp eq i32 %42, 8
  br i1 %43, label %44, label %104

44:                                               ; preds = %33
  %45 = load ptr, ptr %11, align 8
  %46 = load i32, ptr %14, align 4
  %47 = zext i32 %46 to i64
  %48 = getelementptr inbounds %struct._zval_struct, ptr %45, i64 %47
  %49 = getelementptr inbounds %struct._zval_struct, ptr %48, i32 0, i32 0
  %50 = load ptr, ptr %49, align 8
  %51 = getelementptr inbounds %struct._zend_object, ptr %50, i32 0, i32 2
  %52 = load ptr, ptr %51, align 8
  store ptr %52, ptr %16, align 8
  %53 = load ptr, ptr %16, align 8
  %54 = load ptr, ptr @dom_node_class_entry, align 8
  store ptr %53, ptr %5, align 8
  store ptr %54, ptr %6, align 8
  %55 = load ptr, ptr %5, align 8
  %56 = load ptr, ptr %6, align 8
  %57 = icmp eq ptr %55, %56
  br i1 %57, label %62, label %58

58:                                               ; preds = %44
  %59 = load ptr, ptr %5, align 8
  %60 = load ptr, ptr %6, align 8
  %61 = call zeroext i1 @instanceof_function_slow(ptr noundef %59, ptr noundef %60) #2
  br label %62

62:                                               ; preds = %58, %44
  %63 = phi i1 [ true, %44 ], [ %61, %58 ]
  br i1 %63, label %64, label %95

64:                                               ; preds = %62
  %65 = load ptr, ptr %11, align 8
  %66 = load i32, ptr %14, align 4
  %67 = zext i32 %66 to i64
  %68 = getelementptr inbounds %struct._zval_struct, ptr %65, i64 %67
  %69 = getelementptr inbounds %struct._zval_struct, ptr %68, i32 0, i32 0
  %70 = load ptr, ptr %69, align 8
  %71 = call ptr @php_dom_obj_from_obj(ptr noundef %70)
  %72 = call ptr @dom_object_get_node(ptr noundef %71)
  store ptr %72, ptr %17, align 8
  %73 = load ptr, ptr %17, align 8
  %74 = getelementptr inbounds %struct._xmlNode, ptr %73, i32 0, i32 8
  %75 = load ptr, ptr %74, align 8
  %76 = load ptr, ptr %13, align 8
  %77 = icmp ne ptr %75, %76
  br i1 %77, label %78, label %81

78:                                               ; preds = %64
  %79 = load ptr, ptr %9, align 8
  %80 = call i32 @dom_get_strict_error(ptr noundef %79)
  call void @php_dom_throw_error(i32 noundef 4, i32 noundef %80)
  store i32 -1, ptr %8, align 4
  br label %122

81:                                               ; preds = %64
  %82 = load ptr, ptr %17, align 8
  %83 = getelementptr inbounds %struct._xmlNode, ptr %82, i32 0, i32 1
  %84 = load i32, ptr %83, align 8
  %85 = icmp eq i32 %84, 2
  br i1 %85, label %91, label %86

86:                                               ; preds = %81
  %87 = load ptr, ptr %10, align 8
  %88 = load ptr, ptr %17, align 8
  %89 = call i32 @dom_hierarchy(ptr noundef %87, ptr noundef %88)
  %90 = icmp ne i32 %89, 0
  br i1 %90, label %91, label %94

91:                                               ; preds = %86, %81
  %92 = load ptr, ptr %9, align 8
  %93 = call i32 @dom_get_strict_error(ptr noundef %92)
  call void @php_dom_throw_error(i32 noundef 3, i32 noundef %93)
  store i32 -1, ptr %8, align 4
  br label %122

94:                                               ; preds = %86
  br label %103

95:                                               ; preds = %62
  %96 = load i32, ptr %14, align 4
  %97 = add i32 %96, 1
  %98 = load ptr, ptr %11, align 8
  %99 = load i32, ptr %14, align 4
  %100 = zext i32 %99 to i64
  %101 = getelementptr inbounds %struct._zval_struct, ptr %98, i64 %100
  %102 = call ptr @zend_zval_type_name(ptr noundef %101)
  call void (i32, ptr, ...) @zend_argument_type_error(i32 noundef %97, ptr noundef @.str, ptr noundef %102)
  store i32 -1, ptr %8, align 4
  br label %122

103:                                              ; preds = %94
  br label %117

104:                                              ; preds = %33
  %105 = load i8, ptr %15, align 1
  %106 = zext i8 %105 to i32
  %107 = icmp ne i32 %106, 6
  br i1 %107, label %108, label %116

108:                                              ; preds = %104
  %109 = load i32, ptr %14, align 4
  %110 = add i32 %109, 1
  %111 = load ptr, ptr %11, align 8
  %112 = load i32, ptr %14, align 4
  %113 = zext i32 %112 to i64
  %114 = getelementptr inbounds %struct._zval_struct, ptr %111, i64 %113
  %115 = call ptr @zend_zval_type_name(ptr noundef %114)
  call void (i32, ptr, ...) @zend_argument_type_error(i32 noundef %110, ptr noundef @.str, ptr noundef %115)
  store i32 -1, ptr %8, align 4
  br label %122

116:                                              ; preds = %104
  br label %117

117:                                              ; preds = %116, %103
  br label %118

118:                                              ; preds = %117
  %119 = load i32, ptr %14, align 4
  %120 = add i32 %119, 1
  store i32 %120, ptr %14, align 4
  br label %29

121:                                              ; preds = %29
  store i32 0, ptr %8, align 4
  br label %122

122:                                              ; preds = %121, %108, %95, %91, %78, %25
  %123 = load i32, ptr %8, align 4
  ret i32 %123
}