; Function Attrs: nounwind uwtable
define internal fastcc noundef i32 @dom_sanity_check_node_list_for_insertion(ptr noundef %0, ptr noundef %1, ptr noundef %2, i32 noundef %3) unnamed_addr #0 {
  %5 = icmp eq ptr %1, null
  br i1 %5, label %.loopexit, label %6

6:                                                ; preds = %4
  %7 = getelementptr inbounds i8, ptr %1, i64 8
  %8 = load i32, ptr %7, align 8
  switch i32 %8, label %9 [
    i32 9, label %dom_doc_from_context_node.exit
    i32 13, label %dom_doc_from_context_node.exit
  ]

9:                                                ; preds = %6
  %10 = getelementptr inbounds i8, ptr %1, i64 64
  %11 = load ptr, ptr %10, align 8
  br label %dom_doc_from_context_node.exit

dom_doc_from_context_node.exit:                   ; preds = %6, %6, %9
  %.0.i = phi ptr [ %11, %9 ], [ %1, %6 ], [ %1, %6 ]
  %.not = icmp eq i32 %3, 0
  br i1 %.not, label %.loopexit, label %.lr.ph.preheader

.lr.ph.preheader:                                 ; preds = %dom_doc_from_context_node.exit
  %wide.trip.count = zext i32 %3 to i64
  br label %.lr.ph

.lr.ph:                                           ; preds = %.lr.ph.preheader, %46
  %indvars.iv = phi i64 [ 0, %.lr.ph.preheader ], [ %indvars.iv.next, %46 ]
  %12 = getelementptr inbounds %struct._zval_struct, ptr %2, i64 %indvars.iv
  %13 = getelementptr inbounds i8, ptr %12, i64 8
  %14 = load i8, ptr %13, align 8
  switch i8 %14, label %42 [
    i8 8, label %15
    i8 6, label %46
  ]

15:                                               ; preds = %.lr.ph
  %16 = load ptr, ptr %12, align 8
  %17 = getelementptr inbounds i8, ptr %16, i64 16
  %18 = load ptr, ptr %17, align 8
  %19 = load ptr, ptr @dom_node_class_entry, align 8
  %20 = icmp eq ptr %18, %19
  br i1 %20, label %.critedge, label %21

21:                                               ; preds = %15
  %22 = tail call zeroext i1 @instanceof_function_slow(ptr noundef %18, ptr noundef %19) #3
  br i1 %22, label %..critedge_crit_edge, label %38

..critedge_crit_edge:                             ; preds = %21
  %.pre = load ptr, ptr %12, align 8
  br label %.critedge

.critedge:                                        ; preds = %..critedge_crit_edge, %15
  %23 = phi ptr [ %.pre, %..critedge_crit_edge ], [ %16, %15 ]
  %24 = getelementptr inbounds i8, ptr %23, i64 -24
  %25 = tail call ptr @dom_object_get_node(ptr noundef nonnull %24) #3
  %26 = getelementptr inbounds i8, ptr %25, i64 64
  %27 = load ptr, ptr %26, align 8
  %.not37 = icmp eq ptr %27, %.0.i
  br i1 %.not37, label %30, label %28

28:                                               ; preds = %.critedge
  %29 = tail call i32 @dom_get_strict_error(ptr noundef %0) #3
  tail call void @php_dom_throw_error(i32 noundef 4, i32 noundef %29) #3
  br label %.loopexit

30:                                               ; preds = %.critedge
  %31 = getelementptr inbounds i8, ptr %25, i64 8
  %32 = load i32, ptr %31, align 8
  %33 = icmp eq i32 %32, 2
  br i1 %33, label %36, label %34

34:                                               ; preds = %30
  %35 = tail call i32 @dom_hierarchy(ptr noundef nonnull %1, ptr noundef nonnull %25) #3
  %.not38 = icmp eq i32 %35, 0
  br i1 %.not38, label %46, label %36

36:                                               ; preds = %34, %30
  %37 = tail call i32 @dom_get_strict_error(ptr noundef %0) #3
  tail call void @php_dom_throw_error(i32 noundef 3, i32 noundef %37) #3
  br label %.loopexit

38:                                               ; preds = %21
  %39 = trunc i64 %indvars.iv to i32
  %40 = add nuw i32 %39, 1
  %41 = tail call ptr @zend_zval_type_name(ptr noundef nonnull %12) #3
  tail call void (i32, ptr, ...) @zend_argument_type_error(i32 noundef %40, ptr noundef nonnull @.str, ptr noundef %41) #3
  br label %.loopexit

42:                                               ; preds = %.lr.ph
  %43 = trunc i64 %indvars.iv to i32
  %44 = add nuw i32 %43, 1
  %45 = tail call ptr @zend_zval_type_name(ptr noundef nonnull %12) #3
  tail call void (i32, ptr, ...) @zend_argument_type_error(i32 noundef %44, ptr noundef nonnull @.str, ptr noundef %45) #3
  br label %.loopexit

46:                                               ; preds = %.lr.ph, %34
  %indvars.iv.next = add nuw nsw i64 %indvars.iv, 1
  %exitcond.not = icmp eq i64 %indvars.iv.next, %wide.trip.count
  br i1 %exitcond.not, label %.loopexit, label %.lr.ph

.loopexit:                                        ; preds = %46, %dom_doc_from_context_node.exit, %4, %42, %38, %36, %28
  %.0 = phi i32 [ -1, %28 ], [ -1, %36 ], [ -1, %38 ], [ -1, %42 ], [ -1, %4 ], [ 0, %dom_doc_from_context_node.exit ], [ 0, %46 ]
  ret i32 %.0
}